; Function Attrs: inlinehint mustprogress nounwind uwtable
define internal fastcc void @"_ZZN9grpc_core13ClientChannel25RemoveConnectivityWatcherEPNS_38AsyncConnectivityStateWatcherInterfaceEEN3$_0D2Ev"(ptr %.0.val) unnamed_addr #16 align 2 personality ptr @__gxx_personality_v0 {
  %.not.i = icmp eq ptr %.0.val, null
  br i1 %.not.i, label %_ZN9grpc_core13RefCountedPtrINS_13ClientChannelEED2Ev.exit, label %1

1:                                                ; preds = %0
  %2 = getelementptr inbounds nuw i8, ptr %.0.val, i64 8
  %3 = atomicrmw add ptr %2, i64 -4294967295 acq_rel, align 8
  %.mask.i.i = and i64 %3, -4294967296
  %4 = icmp eq i64 %.mask.i.i, 4294967296
  br i1 %4, label %5, label %.noexc.i, !prof !26

5:                                                ; preds = %1
  %6 = load ptr, ptr %.0.val, align 8, !tbaa !8
  %7 = getelementptr inbounds nuw i8, ptr %6, i64 16
  %8 = load ptr, ptr %7, align 8
  invoke void %8(ptr noundef nonnull align 8 dereferenceable(16) %.0.val)
          to label %.noexc.i unwind label %15

.noexc.i:                                         ; preds = %5, %1
  %9 = atomicrmw sub ptr %2, i64 1 acq_rel, align 8
  %10 = icmp eq i64 %9, 1
  br i1 %10, label %11, label %_ZN9grpc_core13RefCountedPtrINS_13ClientChannelEED2Ev.exit, !prof !26

11:                                               ; preds = %.noexc.i
  %12 = load ptr, ptr %.0.val, align 8, !tbaa !8
  %13 = getelementptr inbounds nuw i8, ptr %12, i64 8
  %14 = load ptr, ptr %13, align 8
  tail call void %14(ptr noundef nonnull align 8 dereferenceable(16) %.0.val) #42
  br label %_ZN9grpc_core13RefCountedPtrINS_13ClientChannelEED2Ev.exit

15:                                               ; preds = %5
  %16 = landingpad { ptr, i32 }
          catch ptr null
  %17 = extractvalue { ptr, i32 } %16, 0
  tail call void @__clang_call_terminate(ptr %17) #47
  unreachable

_ZN9grpc_core13RefCountedPtrINS_13ClientChannelEED2Ev.exit: ; preds = %0, %.noexc.i, %11
  ret void
}